target datalayout = "e-m:e-p270:32:32-p271:32:32-p272:64:64-i64:64-i128:128-f80:128-n8:16:32:64-S128"
target triple = "x86_64-unknown-linux-gnu"

%struct.QTailQLink = type { ptr, ptr }
%struct.BlockDriverState = type { i32, i8, i8, i8, i8, i8, ptr, ptr, ptr, %struct.anon.0, i8, [4096 x i8], [4096 x i8], [4096 x i8], [16 x i8], ptr, [4096 x i8], %struct.BlockLimits, i32, i32, i32, i32, [32 x i8], %union.anon.1, %union.anon.2, %union.anon.3, i32, [16 x %struct.anon.4], ptr, %struct.anon.5, ptr, ptr, %struct.anon.6, ptr, ptr, i32, ptr, i64, i64, %struct.QemuMutex, %struct.anon.7, %struct.Stat64, i32, i32, i32, i32, i32, i32, %struct.QemuMutex, %struct.anon.8, %struct.CoQueue, i8, i32, i8, %struct.CoMutex, ptr, ptr }
%struct.anon.0 = type { ptr }
%struct.BlockLimits = type { i32, i64, i32, i64, i32, i32, i32, i64, i32, i64, i64, i32, i8, i32, i32, i32, i32, i32, i32, i32 }
%union.anon.1 = type { %struct.QTailQLink }
%union.anon.2 = type { %struct.QTailQLink }
%union.anon.3 = type { %struct.QTailQLink }
%struct.anon.4 = type { ptr }
%struct.anon.5 = type { ptr }
%struct.anon.6 = type { ptr }
%struct.anon.7 = type { ptr }
%struct.Stat64 = type { i64 }
%struct.QemuMutex = type { %union.pthread_mutex_t, i8 }
%union.pthread_mutex_t = type { %struct.__pthread_mutex_s }
%struct.__pthread_mutex_s = type { i32, i32, i32, i32, i32, i16, i16, %struct.__pthread_internal_list }
%struct.__pthread_internal_list = type { ptr, ptr }
%struct.anon.8 = type { ptr }
%struct.CoQueue = type { %struct.anon.9 }
%struct.anon.9 = type { ptr, ptr }
%struct.CoMutex = type { i32, ptr, %struct.anon.10, %struct.anon.10, i32, i32, ptr }
%struct.anon.10 = type { ptr }
%struct.BdrvChild = type { ptr, ptr, ptr, i32, ptr, i64, i64, i8, i8, %struct.anon.11, %struct.anon.12 }
%struct.anon.11 = type { ptr, ptr }
%struct.anon.12 = type { ptr, ptr }
%struct.QDict = type { %struct.QObjectBase_, i64, [512 x %struct.anon.17] }
%struct.QObjectBase_ = type { i32, i64 }
%struct.anon.17 = type { ptr }
%struct.QObject = type { %struct.QObjectBase_ }

@.str.28 = private unnamed_addr constant [5 x i8] c"file\00", align 1
@.str.113 = private unnamed_addr constant [8 x i8] c"backing\00", align 1

; Function Attrs: nounwind sspstrong uwtable
define internal void @qobject_ref_impl(ptr noundef %obj) #0 {
entry:
  %obj.addr = alloca ptr, align 8
  store ptr %obj, ptr %obj.addr, align 8
  %0 = load ptr, ptr %obj.addr, align 8
  %tobool = icmp ne ptr %0, null
  br i1 %tobool, label %if.then, label %if.end

if.then:                                          ; preds = %entry
  %1 = load ptr, ptr %obj.addr, align 8
  %base = getelementptr inbounds %struct.QObject, ptr %1, i32 0, i32 0
  %refcnt = getelementptr inbounds %struct.QObjectBase_, ptr %base, i32 0, i32 1
  %2 = load i64, ptr %refcnt, align 8
  %inc = add i64 %2, 1
  store i64 %inc, ptr %refcnt, align 8
  br label %if.end

if.end:                                           ; preds = %if.then, %entry
  ret void
}

; Function Attrs: nounwind sspstrong uwtable
define internal void @vmdk_gather_child_options(ptr noundef %bs, ptr noundef %target, i1 noundef zeroext %backing_overridden) #0 {
entry:
  %bs.addr = alloca ptr, align 8
  %target.addr = alloca ptr, align 8
  %backing_overridden.addr = alloca i8, align 1
  %_obj22 = alloca ptr, align 8
  %_o = alloca ptr, align 8
  %_obj21 = alloca ptr, align 8
  %tmp = alloca ptr, align 8
  %__mptr = alloca ptr, align 8
  %tmp2 = alloca ptr, align 8
  %tmp3 = alloca ptr, align 8
  %tmp4 = alloca ptr, align 8
  %__mptr7 = alloca ptr, align 8
  %tmp9 = alloca ptr, align 8
  %_obj24 = alloca ptr, align 8
  %_o17 = alloca ptr, align 8
  %_obj23 = alloca ptr, align 8
  %tmp21 = alloca ptr, align 8
  %__mptr24 = alloca ptr, align 8
  %tmp26 = alloca ptr, align 8
  %tmp31 = alloca ptr, align 8
  %tmp32 = alloca ptr, align 8
  %__mptr35 = alloca ptr, align 8
  %tmp37 = alloca ptr, align 8
  store ptr %bs, ptr %bs.addr, align 8
  store ptr %target, ptr %target.addr, align 8
  %frombool = zext i1 %backing_overridden to i8
  store i8 %frombool, ptr %backing_overridden.addr, align 1
  %0 = load ptr, ptr %target.addr, align 8
  %1 = load ptr, ptr %bs.addr, align 8
  %file = getelementptr inbounds %struct.BlockDriverState, ptr %1, i32 0, i32 31
  %2 = load ptr, ptr %file, align 8
  %bs1 = getelementptr inbounds %struct.BdrvChild, ptr %2, i32 0, i32 0
  %3 = load ptr, ptr %bs1, align 8
  %full_open_options = getelementptr inbounds %struct.BlockDriverState, ptr %3, i32 0, i32 15
  %4 = load ptr, ptr %full_open_options, align 8
  store ptr %4, ptr %_o, align 8
  %5 = load ptr, ptr %_o, align 8
  store ptr %5, ptr %_obj21, align 8
  %6 = load ptr, ptr %_obj21, align 8
  %tobool = icmp ne ptr %6, null
  br i1 %tobool, label %cond.true, label %cond.false

cond.true:                                        ; preds = %entry
  %7 = load ptr, ptr %_obj21, align 8
  %base = getelementptr inbounds %struct.QDict, ptr %7, i32 0, i32 0
  store ptr %base, ptr %__mptr, align 8
  %8 = load ptr, ptr %__mptr, align 8
  %add.ptr = getelementptr i8, ptr %8, i64 0
  store ptr %add.ptr, ptr %tmp2, align 8
  %9 = load ptr, ptr %tmp2, align 8
  br label %cond.end

cond.false:                                       ; preds = %entry
  br label %cond.end

cond.end:                                         ; preds = %cond.false, %cond.true
  %cond = phi ptr [ %9, %cond.true ], [ null, %cond.false ]
  store ptr %cond, ptr %tmp, align 8
  %10 = load ptr, ptr %tmp, align 8
  call void @qobject_ref_impl(ptr noundef %10)
  %11 = load ptr, ptr %_o, align 8
  store ptr %11, ptr %tmp3, align 8
  %12 = load ptr, ptr %tmp3, align 8
  store ptr %12, ptr %_obj22, align 8
  %13 = load ptr, ptr %_obj22, align 8
  %tobool5 = icmp ne ptr %13, null
  br i1 %tobool5, label %cond.true6, label %cond.false11

cond.true6:                                       ; preds = %cond.end
  %14 = load ptr, ptr %_obj22, align 8
  %base8 = getelementptr inbounds %struct.QDict, ptr %14, i32 0, i32 0
  store ptr %base8, ptr %__mptr7, align 8
  %15 = load ptr, ptr %__mptr7, align 8
  %add.ptr10 = getelementptr i8, ptr %15, i64 0
  store ptr %add.ptr10, ptr %tmp9, align 8
  %16 = load ptr, ptr %tmp9, align 8
  br label %cond.end12

cond.false11:                                     ; preds = %cond.end
  br label %cond.end12

cond.end12:                                       ; preds = %cond.false11, %cond.true6
  %cond13 = phi ptr [ %16, %cond.true6 ], [ null, %cond.false11 ]
  store ptr %cond13, ptr %tmp4, align 8
  %17 = load ptr, ptr %tmp4, align 8
  call void @qdict_put_obj(ptr noundef %0, ptr noundef @.str.28, ptr noundef %17)
  %18 = load i8, ptr %backing_overridden.addr, align 1
  %tobool14 = trunc i8 %18 to i1
  br i1 %tobool14, label %if.then, label %if.end42

if.then:                                          ; preds = %cond.end12
  %19 = load ptr, ptr %bs.addr, align 8
  %backing = getelementptr inbounds %struct.BlockDriverState, ptr %19, i32 0, i32 30
  %20 = load ptr, ptr %backing, align 8
  %tobool15 = icmp ne ptr %20, null
  br i1 %tobool15, label %if.then16, label %if.else

if.then16:                                        ; preds = %if.then
  %21 = load ptr, ptr %target.addr, align 8
  %22 = load ptr, ptr %bs.addr, align 8
  %backing18 = getelementptr inbounds %struct.BlockDriverState, ptr %22, i32 0, i32 30
  %23 = load ptr, ptr %backing18, align 8
  %bs19 = getelementptr inbounds %struct.BdrvChild, ptr %23, i32 0, i32 0
  %24 = load ptr, ptr %bs19, align 8
  %full_open_options20 = getelementptr inbounds %struct.BlockDriverState, ptr %24, i32 0, i32 15
  %25 = load ptr, ptr %full_open_options20, align 8
  store ptr %25, ptr %_o17, align 8
  %26 = load ptr, ptr %_o17, align 8
  store ptr %26, ptr %_obj23, align 8
  %27 = load ptr, ptr %_obj23, align 8
  %tobool22 = icmp ne ptr %27, null
  br i1 %tobool22, label %cond.true23, label %cond.false28

cond.true23:                                      ; preds = %if.then16
  %28 = load ptr, ptr %_obj23, align 8
  %base25 = getelementptr inbounds %struct.QDict, ptr %28, i32 0, i32 0
  store ptr %base25, ptr %__mptr24, align 8
  %29 = load ptr, ptr %__mptr24, align 8
  %add.ptr27 = getelementptr i8, ptr %29, i64 0
  store ptr %add.ptr27, ptr %tmp26, align 8
  %30 = load ptr, ptr %tmp26, align 8
  br label %cond.end29

cond.false28:                                     ; preds = %if.then16
  br label %cond.end29

cond.end29:                                       ; preds = %cond.false28, %cond.true23
  %cond30 = phi ptr [ %30, %cond.true23 ], [ null, %cond.false28 ]
  store ptr %cond30, ptr %tmp21, align 8
  %31 = load ptr, ptr %tmp21, align 8
  call void @qobject_ref_impl(ptr noundef %31)
  %32 = load ptr, ptr %_o17, align 8
  store ptr %32, ptr %tmp31, align 8
  %33 = load ptr, ptr %tmp31, align 8
  store ptr %33, ptr %_obj24, align 8
  %34 = load ptr, ptr %_obj24, align 8
  %tobool33 = icmp ne ptr %34, null
  br i1 %tobool33, label %cond.true34, label %cond.false39

cond.true34:                                      ; preds = %cond.end29
  %35 = load ptr, ptr %_obj24, align 8
  %base36 = getelementptr inbounds %struct.QDict, ptr %35, i32 0, i32 0
  store ptr %base36, ptr %__mptr35, align 8
  %36 = load ptr, ptr %__mptr35, align 8
  %add.ptr38 = getelementptr i8, ptr %36, i64 0
  store ptr %add.ptr38, ptr %tmp37, align 8
  %37 = load ptr, ptr %tmp37, align 8
  br label %cond.end40

cond.false39:                                     ; preds = %cond.end29
  br label %cond.end40

cond.end40:                                       ; preds = %cond.false39, %cond.true34
  %cond41 = phi ptr [ %37, %cond.true34 ], [ null, %cond.false39 ]
  store ptr %cond41, ptr %tmp32, align 8
  %38 = load ptr, ptr %tmp32, align 8
  call void @qdict_put_obj(ptr noundef %21, ptr noundef @.str.113, ptr noundef %38)
  br label %if.end

if.else:                                          ; preds = %if.then
  %39 = load ptr, ptr %target.addr, align 8
  call void @qdict_put_null(ptr noundef %39, ptr noundef @.str.113)
  br label %if.end

if.end:                                           ; preds = %if.else, %cond.end40
  br label %if.end42

if.end42:                                         ; preds = %if.end, %cond.end12
  ret void
}