; Function Attrs: nounwind sspstrong uwtable
define internal void @vmdk_gather_child_options(ptr noundef readonly captures(none) %bs, ptr noundef %target, i1 noundef zeroext %backing_overridden) #0 {
entry:
  %file = getelementptr inbounds nuw i8, ptr %bs, i64 16840
  %0 = load ptr, ptr %file, align 8
  %1 = load ptr, ptr %0, align 8
  %full_open_options = getelementptr inbounds nuw i8, ptr %1, i64 12360
  %2 = load ptr, ptr %full_open_options, align 8
  %tobool.not = icmp eq ptr %2, null
  br i1 %tobool.not, label %qobject_ref_impl.exit, label %if.then.i

if.then.i:                                        ; preds = %entry
  %refcnt.i = getelementptr inbounds nuw i8, ptr %2, i64 8
  %3 = load i64, ptr %refcnt.i, align 8
  %inc.i = add i64 %3, 1
  store i64 %inc.i, ptr %refcnt.i, align 8
  br label %qobject_ref_impl.exit

qobject_ref_impl.exit:                            ; preds = %entry, %if.then.i
  tail call void @qdict_put_obj(ptr noundef %target, ptr noundef nonnull @.str.28, ptr noundef %2) #15
  br i1 %backing_overridden, label %if.then, label %if.end42

if.then:                                          ; preds = %qobject_ref_impl.exit
  %backing = getelementptr inbounds nuw i8, ptr %bs, i64 16832
  %4 = load ptr, ptr %backing, align 8
  %tobool15.not = icmp eq ptr %4, null
  br i1 %tobool15.not, label %if.else, label %if.then16

if.then16:                                        ; preds = %if.then
  %5 = load ptr, ptr %4, align 8
  %full_open_options20 = getelementptr inbounds nuw i8, ptr %5, i64 12360
  %6 = load ptr, ptr %full_open_options20, align 8
  %tobool22.not = icmp eq ptr %6, null
  br i1 %tobool22.not, label %qobject_ref_impl.exit18, label %if.then.i15

if.then.i15:                                      ; preds = %if.then16
  %refcnt.i16 = getelementptr inbounds nuw i8, ptr %6, i64 8
  %7 = load i64, ptr %refcnt.i16, align 8
  %inc.i17 = add i64 %7, 1
  store i64 %inc.i17, ptr %refcnt.i16, align 8
  br label %qobject_ref_impl.exit18

qobject_ref_impl.exit18:                          ; preds = %if.then16, %if.then.i15
  tail call void @qdict_put_obj(ptr noundef %target, ptr noundef nonnull @.str.113, ptr noundef %6) #15
  br label %if.end42

if.else:                                          ; preds = %if.then
  tail call void @qdict_put_null(ptr noundef %target, ptr noundef nonnull @.str.113) #15
  br label %if.end42

if.end42:                                         ; preds = %qobject_ref_impl.exit18, %if.else, %qobject_ref_impl.exit
  ret void
}